; Function Attrs: nounwind uwtable
define internal fastcc ptr @os_pages_map(ptr noundef %0, i64 noundef %1, ptr noundef captures(none) %2) unnamed_addr #0 {
  %4 = alloca [64 x i8], align 16
  %5 = load i8, ptr @os_overcommits, align 1, !tbaa !8, !range !10, !noundef !11
  %6 = trunc nuw i8 %5 to i1
  br i1 %6, label %9, label %._crit_edge

._crit_edge:                                      ; preds = %3
  %.pre = load i8, ptr %2, align 1, !tbaa !8, !range !10
  %7 = trunc nuw i8 %.pre to i1
  %8 = select i1 %7, i32 3, i32 0
  br label %10

9:                                                ; preds = %3
  store i8 1, ptr %2, align 1, !tbaa !8
  br label %10

10:                                               ; preds = %._crit_edge, %9
  %11 = phi i32 [ %8, %._crit_edge ], [ 3, %9 ]
  %12 = load i32, ptr @mmap_flags, align 4, !tbaa !4
  %13 = tail call ptr @mmap(ptr noundef %0, i64 noundef %1, i32 noundef %11, i32 noundef %12, i32 noundef -1, i64 noundef 0) #8
  %14 = icmp eq ptr %13, inttoptr (i64 -1 to ptr)
  br i1 %14, label %os_pages_unmap.exit, label %15

15:                                               ; preds = %10
  %.not = icmp eq ptr %0, null
  %.not13 = icmp eq ptr %13, %0
  %or.cond = or i1 %.not, %.not13
  br i1 %or.cond, label %os_pages_unmap.exit, label %16

16:                                               ; preds = %15
  %17 = tail call i32 @munmap(ptr noundef %13, i64 noundef %1) #8
  %18 = icmp eq i32 %17, -1
  br i1 %18, label %19, label %os_pages_unmap.exit

19:                                               ; preds = %16
  call void @llvm.lifetime.start.p0(i64 64, ptr nonnull %4) #8
  %20 = tail call ptr @__errno_location() #9
  %21 = load i32, ptr %20, align 4, !tbaa !4
  %22 = call i32 @je_buferror(i32 noundef %21, ptr noundef nonnull %4, i64 noundef 64) #8
  call void (ptr, ...) @je_malloc_printf(ptr noundef nonnull @.str.7, ptr noundef nonnull %4) #8
  %23 = load i8, ptr @je_opt_abort, align 1, !tbaa !8, !range !10, !noundef !11
  %24 = trunc nuw i8 %23 to i1
  br i1 %24, label %25, label %26

25:                                               ; preds = %19
  call void @abort() #10
  unreachable

26:                                               ; preds = %19
  call void @llvm.lifetime.end.p0(i64 64, ptr nonnull %4) #8
  br label %os_pages_unmap.exit

os_pages_unmap.exit:                              ; preds = %26, %16, %10, %15
  %.0 = phi ptr [ %13, %15 ], [ null, %10 ], [ null, %16 ], [ null, %26 ]
  ret ptr %.0
}